#include <math.h>
#include <stdio.h>
#include <stdlib.h>
#include <string.h>

int main(){
int n,i,m,b=0,c=0;
char a[100000];
char *p,*q;
scanf("%d",&n);
for(i=0;i<n;i++){
	scanf("%s",a);
	m=strlen(a);
	for(p=a;p<a+m;p++){
		for(q=a;q<a+m;q++){
			if((*p)==(*q)&&p!=q){
				b=1;
				break;
			}	
		}
		if(b==0){
			printf("%c\n",*p);
			c=1;
			break;
		}
		b=0;
	}
	if(c==0){
		printf("no\n");
	}
	c=0;
	
}
return 0;
}




