; ModuleID = '37/1008.c'
source_filename = "37/1008.c"
target datalayout = "e-m:e-p270:32:32-p271:32:32-p272:64:64-i64:64-f80:128-n8:16:32:64-S128"
target triple = "x86_64-pc-linux-gnu"

@.str = private unnamed_addr constant [3 x i8] c"%d\00", align 1
@.str.1 = private unnamed_addr constant [3 x i8] c"%s\00", align 1
@.str.2 = private unnamed_addr constant [4 x i8] c"%c\0A\00", align 1
@.str.3 = private unnamed_addr constant [4 x i8] c"no\0A\00", align 1

; Function Attrs: noinline nounwind uwtable
define dso_local i32 @main() #0 {
  %1 = alloca i32, align 4
  %2 = alloca i32, align 4
  %3 = alloca i32, align 4
  %4 = alloca i32, align 4
  %5 = alloca i32, align 4
  %6 = alloca i32, align 4
  %7 = alloca [100000 x i8], align 16
  %8 = alloca i8*, align 8
  %9 = alloca i8*, align 8
  store i32 0, i32* %1, align 4
  store i32 0, i32* %5, align 4
  store i32 0, i32* %6, align 4
  %10 = call i32 (i8*, ...) @__isoc99_scanf(i8* getelementptr inbounds ([3 x i8], [3 x i8]* @.str, i64 0, i64 0), i32* %2)
  store i32 0, i32* %3, align 4
  br label %11

11:                                               ; preds = %73, %0
  %12 = load i32, i32* %3, align 4
  %13 = load i32, i32* %2, align 4
  %14 = icmp slt i32 %12, %13
  br i1 %14, label %15, label %76

15:                                               ; preds = %11
  %16 = getelementptr inbounds [100000 x i8], [100000 x i8]* %7, i64 0, i64 0
  %17 = call i32 (i8*, ...) @__isoc99_scanf(i8* getelementptr inbounds ([3 x i8], [3 x i8]* @.str.1, i64 0, i64 0), i8* %16)
  %18 = getelementptr inbounds [100000 x i8], [100000 x i8]* %7, i64 0, i64 0
  %19 = call i64 @strlen(i8* %18) #3
  %20 = trunc i64 %19 to i32
  store i32 %20, i32* %4, align 4
  %21 = getelementptr inbounds [100000 x i8], [100000 x i8]* %7, i64 0, i64 0
  store i8* %21, i8** %8, align 8
  br label %22

22:                                               ; preds = %64, %15
  %23 = load i8*, i8** %8, align 8
  %24 = getelementptr inbounds [100000 x i8], [100000 x i8]* %7, i64 0, i64 0
  %25 = load i32, i32* %4, align 4
  %26 = sext i32 %25 to i64
  %27 = getelementptr inbounds i8, i8* %24, i64 %26
  %28 = icmp ult i8* %23, %27
  br i1 %28, label %29, label %67

29:                                               ; preds = %22
  %30 = getelementptr inbounds [100000 x i8], [100000 x i8]* %7, i64 0, i64 0
  store i8* %30, i8** %9, align 8
  br label %31

31:                                               ; preds = %52, %29
  %32 = load i8*, i8** %9, align 8
  %33 = getelementptr inbounds [100000 x i8], [100000 x i8]* %7, i64 0, i64 0
  %34 = load i32, i32* %4, align 4
  %35 = sext i32 %34 to i64
  %36 = getelementptr inbounds i8, i8* %33, i64 %35
  %37 = icmp ult i8* %32, %36
  br i1 %37, label %38, label %55

38:                                               ; preds = %31
  %39 = load i8*, i8** %8, align 8
  %40 = load i8, i8* %39, align 1
  %41 = sext i8 %40 to i32
  %42 = load i8*, i8** %9, align 8
  %43 = load i8, i8* %42, align 1
  %44 = sext i8 %43 to i32
  %45 = icmp eq i32 %41, %44
  br i1 %45, label %46, label %51

46:                                               ; preds = %38
  %47 = load i8*, i8** %8, align 8
  %48 = load i8*, i8** %9, align 8
  %49 = icmp ne i8* %47, %48
  br i1 %49, label %50, label %51

50:                                               ; preds = %46
  store i32 1, i32* %5, align 4
  br label %55

51:                                               ; preds = %46, %38
  br label %52

52:                                               ; preds = %51
  %53 = load i8*, i8** %9, align 8
  %54 = getelementptr inbounds i8, i8* %53, i32 1
  store i8* %54, i8** %9, align 8
  br label %31

55:                                               ; preds = %50, %31
  %56 = load i32, i32* %5, align 4
  %57 = icmp eq i32 %56, 0
  br i1 %57, label %58, label %63

58:                                               ; preds = %55
  %59 = load i8*, i8** %8, align 8
  %60 = load i8, i8* %59, align 1
  %61 = sext i8 %60 to i32
  %62 = call i32 (i8*, ...) @printf(i8* getelementptr inbounds ([4 x i8], [4 x i8]* @.str.2, i64 0, i64 0), i32 %61)
  store i32 1, i32* %6, align 4
  br label %67

63:                                               ; preds = %55
  store i32 0, i32* %5, align 4
  br label %64

64:                                               ; preds = %63
  %65 = load i8*, i8** %8, align 8
  %66 = getelementptr inbounds i8, i8* %65, i32 1
  store i8* %66, i8** %8, align 8
  br label %22

67:                                               ; preds = %58, %22
  %68 = load i32, i32* %6, align 4
  %69 = icmp eq i32 %68, 0
  br i1 %69, label %70, label %72

70:                                               ; preds = %67
  %71 = call i32 (i8*, ...) @printf(i8* getelementptr inbounds ([4 x i8], [4 x i8]* @.str.3, i64 0, i64 0))
  br label %72

72:                                               ; preds = %70, %67
  store i32 0, i32* %6, align 4
  br label %73

73:                                               ; preds = %72
  %74 = load i32, i32* %3, align 4
  %75 = add nsw i32 %74, 1
  store i32 %75, i32* %3, align 4
  br label %11

76:                                               ; preds = %11
  ret i32 0
}

declare dso_local i32 @__isoc99_scanf(i8*, ...) #1

; Function Attrs: nounwind readonly
declare dso_local i64 @strlen(i8*) #2

declare dso_local i32 @printf(i8*, ...) #1


!llvm.module.flags = !{!0}
!llvm.ident = !{!1}

!0 = !{i32 1, !"wchar_size", i32 4}
!1 = !{!"clang version 10.0.0-4ubuntu1 "}
